; Function Attrs: nounwind uwtable
define range(i32 -2147483648, 1) i32 @ff_framesync_dualinput_get_writable(ptr noundef captures(none) %0, ptr noundef %1, ptr noundef writeonly captures(none) %2) local_unnamed_addr #3 {
  %4 = tail call i32 @ff_framesync_dualinput_get(ptr noundef %0, ptr noundef %1, ptr noundef %2)
  %5 = icmp slt i32 %4, 0
  br i1 %5, label %15, label %6

6:                                                ; preds = %3
  %7 = getelementptr inbounds nuw i8, ptr %0, i64 8
  %8 = load ptr, ptr %7, align 8, !tbaa !27
  %9 = getelementptr inbounds nuw i8, ptr %8, i64 32
  %10 = load ptr, ptr %9, align 8, !tbaa !63
  %11 = load ptr, ptr %10, align 8, !tbaa !55
  %12 = tail call i32 @ff_inlink_make_frame_writable(ptr noundef %11, ptr noundef %1) #8
  %13 = icmp slt i32 %12, 0
  br i1 %13, label %14, label %15

14:                                               ; preds = %6
  tail call void @av_frame_free(ptr noundef %1) #8
  store ptr null, ptr %2, align 8, !tbaa !60
  br label %15

15:                                               ; preds = %6, %3, %14
  %.0 = phi i32 [ %12, %14 ], [ %4, %3 ], [ 0, %6 ]
  ret i32 %.0
}